target datalayout = "e-m:e-p270:32:32-p271:32:32-p272:64:64-i64:64-i128:128-f80:128-n8:16:32:64-S128"
target triple = "x86_64-pc-linux-gnu"

%struct.AVFilterContext = type { ptr, ptr, ptr, ptr, ptr, i32, ptr, ptr, i32, ptr, ptr, i32, i32, ptr, ptr, ptr, ptr, i32, ptr, i32, i32 }
%struct.TestSourceContext = type { ptr, i32, i32, i32, i32, i32, %struct.AVRational, %struct.AVRational, i64, i64, %struct.AVRational, i32, i32, ptr, ptr, i32, i32, [4 x i8], i32, %struct.FFDrawContext, %struct.FFDrawColor, [4 x i8], [4 x i8], i32, i32, i32, i32, i32, i32, i32, i32, i32, i32, i32, i32, i32, i32, i32, i32, i32, i32, i32, ptr, ptr }
%struct.AVRational = type { i32, i32 }
%struct.FFDrawContext = type { ptr, i32, i32, [4 x i32], [4 x i8], [4 x i8], i8, i8, i32, i32, i32, [3 x [3 x double]] }
%struct.FFDrawColor = type { [4 x i8], [4 x %union.anon.2] }
%union.anon.2 = type { [4 x i32] }
%struct.AVFilterLink = type { ptr, ptr, ptr, ptr, i32, i32, i32, i32, %struct.AVRational, i32, i32, i32, %struct.AVChannelLayout, %struct.AVRational, ptr, i32, %struct.AVFilterFormatsConfig, %struct.AVFilterFormatsConfig }
%struct.AVChannelLayout = type { i32, i32, %union.anon.1, ptr }
%union.anon.1 = type { i64 }
%struct.AVFilterFormatsConfig = type { ptr, ptr, ptr, ptr, ptr }
%struct.FilterLink = type { %struct.AVFilterLink, ptr, i64, i64, i32, i32, i64, i64, i64, i64, %struct.AVRational, ptr }
%struct.AVPixFmtDescriptor = type { ptr, i8, i8, i8, i64, [4 x %struct.AVComponentDescriptor], ptr }
%struct.AVComponentDescriptor = type { i32, i32, i32, i32, i32 }

; Function Attrs: inlinehint nounwind uwtable
define internal ptr @ff_filter_link(ptr noundef %0) #4 {
  %2 = alloca ptr, align 8
  store ptr %0, ptr %2, align 8, !tbaa !39
  %3 = load ptr, ptr %2, align 8, !tbaa !39
  ret ptr %3
}

; Function Attrs: nounwind uwtable
define internal i32 @config_props(ptr noundef %0) #1 {
  %2 = alloca ptr, align 8
  %3 = alloca ptr, align 8
  %4 = alloca ptr, align 8
  store ptr %0, ptr %2, align 8, !tbaa !39
  call void @llvm.lifetime.start.p0(i64 8, ptr %3) #15
  %5 = load ptr, ptr %2, align 8, !tbaa !39
  %6 = getelementptr inbounds nuw %struct.AVFilterLink, ptr %5, i32 0, i32 0
  %7 = load ptr, ptr %6, align 8, !tbaa !48
  %8 = getelementptr inbounds nuw %struct.AVFilterContext, ptr %7, i32 0, i32 9
  %9 = load ptr, ptr %8, align 8, !tbaa !9
  store ptr %9, ptr %3, align 8, !tbaa !22
  call void @llvm.lifetime.start.p0(i64 8, ptr %4) #15
  %10 = load ptr, ptr %2, align 8, !tbaa !39
  %11 = call ptr @ff_filter_link(ptr noundef %10)
  store ptr %11, ptr %4, align 8, !tbaa !81
  %12 = load ptr, ptr %3, align 8, !tbaa !22
  %13 = getelementptr inbounds nuw %struct.TestSourceContext, ptr %12, i32 0, i32 1
  %14 = load i32, ptr %13, align 8, !tbaa !46
  %15 = load ptr, ptr %2, align 8, !tbaa !39
  %16 = getelementptr inbounds nuw %struct.AVFilterLink, ptr %15, i32 0, i32 6
  store i32 %14, ptr %16, align 8, !tbaa !83
  %17 = load ptr, ptr %3, align 8, !tbaa !22
  %18 = getelementptr inbounds nuw %struct.TestSourceContext, ptr %17, i32 0, i32 2
  %19 = load i32, ptr %18, align 4, !tbaa !47
  %20 = load ptr, ptr %2, align 8, !tbaa !39
  %21 = getelementptr inbounds nuw %struct.AVFilterLink, ptr %20, i32 0, i32 7
  store i32 %19, ptr %21, align 4, !tbaa !84
  %22 = load ptr, ptr %2, align 8, !tbaa !39
  %23 = getelementptr inbounds nuw %struct.AVFilterLink, ptr %22, i32 0, i32 8
  %24 = load ptr, ptr %3, align 8, !tbaa !22
  %25 = getelementptr inbounds nuw %struct.TestSourceContext, ptr %24, i32 0, i32 10
  call void @llvm.memcpy.p0.p0.i64(ptr align 8 %23, ptr align 8 %25, i64 8, i1 false), !tbaa.struct !64
  %26 = load ptr, ptr %4, align 8, !tbaa !81
  %27 = getelementptr inbounds nuw %struct.FilterLink, ptr %26, i32 0, i32 10
  %28 = load ptr, ptr %3, align 8, !tbaa !22
  %29 = getelementptr inbounds nuw %struct.TestSourceContext, ptr %28, i32 0, i32 7
  call void @llvm.memcpy.p0.p0.i64(ptr align 8 %27, ptr align 4 %29, i64 8, i1 false), !tbaa.struct !64
  %30 = load ptr, ptr %2, align 8, !tbaa !39
  %31 = getelementptr inbounds nuw %struct.AVFilterLink, ptr %30, i32 0, i32 13
  %32 = load ptr, ptr %3, align 8, !tbaa !22
  %33 = getelementptr inbounds nuw %struct.TestSourceContext, ptr %32, i32 0, i32 6
  call void @llvm.memcpy.p0.p0.i64(ptr align 8 %31, ptr align 4 %33, i64 8, i1 false), !tbaa.struct !64
  call void @llvm.lifetime.end.p0(i64 8, ptr %4) #15
  call void @llvm.lifetime.end.p0(i64 8, ptr %3) #15
  ret i32 0
}

; Function Attrs: nounwind uwtable
define internal i32 @zoneplate_config_props(ptr noundef %0) #1 {
  %2 = alloca i32, align 4
  %3 = alloca ptr, align 8
  %4 = alloca ptr, align 8
  %5 = alloca ptr, align 8
  %6 = alloca ptr, align 8
  %7 = alloca i32, align 4
  %8 = alloca i32, align 4
  %9 = alloca ptr, align 8
  %10 = alloca ptr, align 8
  %11 = alloca i32, align 4
  %12 = alloca i32, align 4
  %13 = alloca i32, align 4
  store ptr %0, ptr %3, align 8, !tbaa !39
  call void @llvm.lifetime.start.p0(i64 8, ptr %4) #15
  %14 = load ptr, ptr %3, align 8, !tbaa !39
  %15 = getelementptr inbounds nuw %struct.AVFilterLink, ptr %14, i32 0, i32 0
  %16 = load ptr, ptr %15, align 8, !tbaa !48
  store ptr %16, ptr %4, align 8, !tbaa !4
  call void @llvm.lifetime.start.p0(i64 8, ptr %5) #15
  %17 = load ptr, ptr %4, align 8, !tbaa !4
  %18 = getelementptr inbounds nuw %struct.AVFilterContext, ptr %17, i32 0, i32 9
  %19 = load ptr, ptr %18, align 8, !tbaa !9
  store ptr %19, ptr %5, align 8, !tbaa !22
  call void @llvm.lifetime.start.p0(i64 8, ptr %6) #15
  %20 = load ptr, ptr %3, align 8, !tbaa !39
  %21 = getelementptr inbounds nuw %struct.AVFilterLink, ptr %20, i32 0, i32 5
  %22 = load i32, ptr %21, align 4, !tbaa !78
  %23 = call ptr @av_pix_fmt_desc_get(i32 noundef %22)
  store ptr %23, ptr %6, align 8, !tbaa !90
  call void @llvm.lifetime.start.p0(i64 4, ptr %7) #15
  %24 = load ptr, ptr %5, align 8, !tbaa !22
  %25 = getelementptr inbounds nuw %struct.TestSourceContext, ptr %24, i32 0, i32 41
  %26 = load i32, ptr %25, align 4, !tbaa !170
  %27 = shl i32 1, %26
  store i32 %27, ptr %7, align 4, !tbaa !36
  call void @llvm.lifetime.start.p0(i64 4, ptr %8) #15
  %28 = load ptr, ptr %6, align 8, !tbaa !90
  %29 = getelementptr inbounds nuw %struct.AVPixFmtDescriptor, ptr %28, i32 0, i32 5
  %30 = getelementptr inbounds [4 x %struct.AVComponentDescriptor], ptr %29, i64 0, i64 0
  %31 = getelementptr inbounds nuw %struct.AVComponentDescriptor, ptr %30, i32 0, i32 4
  %32 = load i32, ptr %31, align 8, !tbaa !91
  store i32 %32, ptr %8, align 4, !tbaa !36
  call void @llvm.lifetime.start.p0(i64 8, ptr %9) #15
  call void @llvm.lifetime.start.p0(i64 8, ptr %10) #15
  %33 = load ptr, ptr %5, align 8, !tbaa !22
  %34 = getelementptr inbounds nuw %struct.TestSourceContext, ptr %33, i32 0, i32 1
  %35 = load i32, ptr %34, align 8, !tbaa !46
  %36 = load ptr, ptr %5, align 8, !tbaa !22
  %37 = getelementptr inbounds nuw %struct.TestSourceContext, ptr %36, i32 0, i32 2
  %38 = load i32, ptr %37, align 4, !tbaa !47
  %39 = load ptr, ptr %4, align 8, !tbaa !4
  %40 = call i32 @av_image_check_size(i32 noundef %35, i32 noundef %38, i32 noundef 0, ptr noundef %39)
  %41 = icmp slt i32 %40, 0
  br i1 %41, label %42, label %43

42:                                               ; preds = %1
  store i32 -22, ptr %2, align 4
  store i32 1, ptr %11, align 4
  br label %152

43:                                               ; preds = %1
  %44 = load i32, ptr %7, align 4, !tbaa !36
  %45 = sext i32 %44 to i64
  %46 = load i32, ptr %8, align 4, !tbaa !36
  %47 = add nsw i32 %46, 7
  %48 = sdiv i32 %47, 8
  %49 = sext i32 %48 to i64
  %50 = mul i64 1, %49
  %51 = call noalias ptr @av_calloc(i64 noundef %45, i64 noundef %50)
  %52 = load ptr, ptr %5, align 8, !tbaa !22
  %53 = getelementptr inbounds nuw %struct.TestSourceContext, ptr %52, i32 0, i32 42
  store ptr %51, ptr %53, align 8, !tbaa !171
  %54 = load ptr, ptr %5, align 8, !tbaa !22
  %55 = getelementptr inbounds nuw %struct.TestSourceContext, ptr %54, i32 0, i32 42
  %56 = load ptr, ptr %55, align 8, !tbaa !171
  %57 = icmp ne ptr %56, null
  br i1 %57, label %59, label %58

58:                                               ; preds = %43
  store i32 -12, ptr %2, align 4
  store i32 1, ptr %11, align 4
  br label %152

59:                                               ; preds = %43
  %60 = load ptr, ptr %5, align 8, !tbaa !22
  %61 = getelementptr inbounds nuw %struct.TestSourceContext, ptr %60, i32 0, i32 42
  %62 = load ptr, ptr %61, align 8, !tbaa !171
  store ptr %62, ptr %10, align 8, !tbaa !35
  %63 = load ptr, ptr %5, align 8, !tbaa !22
  %64 = getelementptr inbounds nuw %struct.TestSourceContext, ptr %63, i32 0, i32 42
  %65 = load ptr, ptr %64, align 8, !tbaa !171
  store ptr %65, ptr %9, align 8, !tbaa !98
  %66 = load i32, ptr %8, align 4, !tbaa !36
  switch i32 %66, label %94 [
    i32 8, label %67
  ]

67:                                               ; preds = %59
  call void @llvm.lifetime.start.p0(i64 4, ptr %12) #15
  store i32 0, ptr %12, align 4, !tbaa !36
  br label %68

68:                                               ; preds = %90, %67
  %69 = load i32, ptr %12, align 4, !tbaa !36
  %70 = load i32, ptr %7, align 4, !tbaa !36
  %71 = icmp slt i32 %69, %70
  br i1 %71, label %73, label %72

72:                                               ; preds = %68
  store i32 3, ptr %11, align 4
  call void @llvm.lifetime.end.p0(i64 4, ptr %12) #15
  br label %93

73:                                               ; preds = %68
  %74 = load i32, ptr %12, align 4, !tbaa !36
  %75 = sitofp i32 %74 to double
  %76 = fmul nsz double 0x401921FB54442D18, %75
  %77 = load i32, ptr %7, align 4, !tbaa !36
  %78 = sitofp i32 %77 to double
  %79 = fdiv nsz double %76, %78
  %80 = fptrunc nsz double %79 to float
  %81 = call nsz float @llvm.sin.f32(float %80)
  %82 = call nsz float @llvm.fmuladd.f32(float 5.000000e-01, float %81, float 5.000000e-01)
  %83 = fmul nsz float 2.550000e+02, %82
  %84 = call i64 @llvm.lrint.i64.f32(float %83)
  %85 = trunc i64 %84 to i8
  %86 = load ptr, ptr %10, align 8, !tbaa !35
  %87 = load i32, ptr %12, align 4, !tbaa !36
  %88 = sext i32 %87 to i64
  %89 = getelementptr inbounds i8, ptr %86, i64 %88
  store i8 %85, ptr %89, align 1, !tbaa !97
  br label %90

90:                                               ; preds = %73
  %91 = load i32, ptr %12, align 4, !tbaa !36
  %92 = add nsw i32 %91, 1
  store i32 %92, ptr %12, align 4, !tbaa !36
  br label %68, !llvm.loop !172

93:                                               ; preds = %72
  br label %125

94:                                               ; preds = %59
  call void @llvm.lifetime.start.p0(i64 4, ptr %13) #15
  store i32 0, ptr %13, align 4, !tbaa !36
  br label %95

95:                                               ; preds = %121, %94
  %96 = load i32, ptr %13, align 4, !tbaa !36
  %97 = load i32, ptr %7, align 4, !tbaa !36
  %98 = icmp slt i32 %96, %97
  br i1 %98, label %100, label %99

99:                                               ; preds = %95
  store i32 6, ptr %11, align 4
  call void @llvm.lifetime.end.p0(i64 4, ptr %13) #15
  br label %124

100:                                              ; preds = %95
  %101 = load i32, ptr %8, align 4, !tbaa !36
  %102 = shl i32 1, %101
  %103 = sub nsw i32 %102, 1
  %104 = sitofp i32 %103 to float
  %105 = load i32, ptr %13, align 4, !tbaa !36
  %106 = sitofp i32 %105 to double
  %107 = fmul nsz double 0x401921FB54442D18, %106
  %108 = load i32, ptr %7, align 4, !tbaa !36
  %109 = sitofp i32 %108 to double
  %110 = fdiv nsz double %107, %109
  %111 = fptrunc nsz double %110 to float
  %112 = call nsz float @llvm.sin.f32(float %111)
  %113 = call nsz float @llvm.fmuladd.f32(float 5.000000e-01, float %112, float 5.000000e-01)
  %114 = fmul nsz float %104, %113
  %115 = call i64 @llvm.lrint.i64.f32(float %114)
  %116 = trunc i64 %115 to i16
  %117 = load ptr, ptr %9, align 8, !tbaa !98
  %118 = load i32, ptr %13, align 4, !tbaa !36
  %119 = sext i32 %118 to i64
  %120 = getelementptr inbounds i16, ptr %117, i64 %119
  store i16 %116, ptr %120, align 2, !tbaa !100
  br label %121

121:                                              ; preds = %100
  %122 = load i32, ptr %13, align 4, !tbaa !36
  %123 = add nsw i32 %122, 1
  store i32 %123, ptr %13, align 4, !tbaa !36
  br label %95, !llvm.loop !173

124:                                              ; preds = %99
  br label %125

125:                                              ; preds = %124, %93
  %126 = load ptr, ptr %5, align 8, !tbaa !22
  %127 = getelementptr inbounds nuw %struct.TestSourceContext, ptr %126, i32 0, i32 11
  store i32 0, ptr %127, align 8, !tbaa !32
  %128 = load ptr, ptr %5, align 8, !tbaa !22
  %129 = getelementptr inbounds nuw %struct.TestSourceContext, ptr %128, i32 0, i32 14
  store ptr @zoneplate_fill_picture, ptr %129, align 8, !tbaa !24
  %130 = load i32, ptr %8, align 4, !tbaa !36
  switch i32 %130, label %149 [
    i32 8, label %131
    i32 9, label %134
    i32 10, label %137
    i32 12, label %140
    i32 14, label %143
    i32 16, label %146
  ]

131:                                              ; preds = %125
  %132 = load ptr, ptr %5, align 8, !tbaa !22
  %133 = getelementptr inbounds nuw %struct.TestSourceContext, ptr %132, i32 0, i32 43
  store ptr @zoneplate_fill_slice_8, ptr %133, align 8, !tbaa !174
  br label %149

134:                                              ; preds = %125
  %135 = load ptr, ptr %5, align 8, !tbaa !22
  %136 = getelementptr inbounds nuw %struct.TestSourceContext, ptr %135, i32 0, i32 43
  store ptr @zoneplate_fill_slice_9, ptr %136, align 8, !tbaa !174
  br label %149

137:                                              ; preds = %125
  %138 = load ptr, ptr %5, align 8, !tbaa !22
  %139 = getelementptr inbounds nuw %struct.TestSourceContext, ptr %138, i32 0, i32 43
  store ptr @zoneplate_fill_slice_10, ptr %139, align 8, !tbaa !174
  br label %149

140:                                              ; preds = %125
  %141 = load ptr, ptr %5, align 8, !tbaa !22
  %142 = getelementptr inbounds nuw %struct.TestSourceContext, ptr %141, i32 0, i32 43
  store ptr @zoneplate_fill_slice_12, ptr %142, align 8, !tbaa !174
  br label %149

143:                                              ; preds = %125
  %144 = load ptr, ptr %5, align 8, !tbaa !22
  %145 = getelementptr inbounds nuw %struct.TestSourceContext, ptr %144, i32 0, i32 43
  store ptr @zoneplate_fill_slice_14, ptr %145, align 8, !tbaa !174
  br label %149

146:                                              ; preds = %125
  %147 = load ptr, ptr %5, align 8, !tbaa !22
  %148 = getelementptr inbounds nuw %struct.TestSourceContext, ptr %147, i32 0, i32 43
  store ptr @zoneplate_fill_slice_16, ptr %148, align 8, !tbaa !174
  br label %149

149:                                              ; preds = %125, %146, %143, %140, %137, %134, %131
  %150 = load ptr, ptr %3, align 8, !tbaa !39
  %151 = call i32 @config_props(ptr noundef %150)
  store i32 %151, ptr %2, align 4
  store i32 1, ptr %11, align 4
  br label %152

152:                                              ; preds = %149, %58, %42
  call void @llvm.lifetime.end.p0(i64 8, ptr %10) #15
  call void @llvm.lifetime.end.p0(i64 8, ptr %9) #15
  call void @llvm.lifetime.end.p0(i64 4, ptr %8) #15
  call void @llvm.lifetime.end.p0(i64 4, ptr %7) #15
  call void @llvm.lifetime.end.p0(i64 8, ptr %6) #15
  call void @llvm.lifetime.end.p0(i64 8, ptr %5) #15
  call void @llvm.lifetime.end.p0(i64 8, ptr %4) #15
  %153 = load i32, ptr %2, align 4
  ret i32 %153
}