; Function Attrs: nounwind uwtable
define internal range(i32 -22, 1) i32 @zoneplate_config_props(ptr noundef captures(none) %0) #1 {
  %2 = load ptr, ptr %0, align 8, !tbaa !38
  %3 = getelementptr inbounds nuw i8, ptr %2, i64 72
  %4 = load ptr, ptr %3, align 8, !tbaa !4
  %5 = getelementptr inbounds nuw i8, ptr %0, i64 36
  %6 = load i32, ptr %5, align 4, !tbaa !61
  %7 = tail call ptr @av_pix_fmt_desc_get(i32 noundef %6) #20
  %8 = getelementptr inbounds nuw i8, ptr %4, i64 388
  %9 = load i32, ptr %8, align 4, !tbaa !142
  %10 = shl nuw i32 1, %9
  %11 = getelementptr inbounds nuw i8, ptr %7, i64 40
  %12 = load i32, ptr %11, align 8, !tbaa !72
  %13 = getelementptr inbounds nuw i8, ptr %4, i64 8
  %14 = load i32, ptr %13, align 8, !tbaa !36
  %15 = getelementptr inbounds nuw i8, ptr %4, i64 12
  %16 = load i32, ptr %15, align 4, !tbaa !37
  %17 = tail call i32 @av_image_check_size(i32 noundef %14, i32 noundef %16, i32 noundef 0, ptr noundef %2) #20
  %18 = icmp slt i32 %17, 0
  br i1 %18, label %81, label %19

19:                                               ; preds = %1
  %20 = sext i32 %10 to i64
  %21 = add nsw i32 %12, 7
  %22 = sdiv i32 %21, 8
  %23 = sext i32 %22 to i64
  %24 = tail call noalias ptr @av_calloc(i64 noundef %20, i64 noundef %23) #20
  %25 = getelementptr inbounds nuw i8, ptr %4, i64 392
  store ptr %24, ptr %25, align 8, !tbaa !143
  %.not = icmp eq ptr %24, null
  br i1 %.not, label %81, label %26

26:                                               ; preds = %19
  %cond = icmp eq i32 %12, 8
  %.not51 = icmp eq i32 %9, 31
  br i1 %cond, label %.preheader, label %.preheader45

.preheader45:                                     ; preds = %26
  br i1 %.not51, label %.loopexit, label %.lr.ph

.lr.ph:                                           ; preds = %.preheader45
  %notmask = shl nsw i32 -1, %12
  %27 = xor i32 %notmask, -1
  %28 = uitofp nneg i32 %27 to float
  %29 = sitofp i32 %10 to double
  %smax = tail call i32 @llvm.smax.i32(i32 %10, i32 1)
  %wide.trip.count = zext nneg i32 %smax to i64
  br label %43

.preheader:                                       ; preds = %26
  br i1 %.not51, label %.loopexit.thread, label %.lr.ph49

.lr.ph49:                                         ; preds = %.preheader
  %30 = sitofp i32 %10 to double
  %smax57 = tail call i32 @llvm.smax.i32(i32 %10, i32 1)
  %wide.trip.count58 = zext nneg i32 %smax57 to i64
  br label %31

31:                                               ; preds = %.lr.ph49, %31
  %indvars.iv54 = phi i64 [ 0, %.lr.ph49 ], [ %indvars.iv.next55, %31 ]
  %32 = trunc nuw nsw i64 %indvars.iv54 to i32
  %33 = uitofp nneg i32 %32 to double
  %34 = fmul nsz double %33, 0x401921FB54442D18
  %35 = fdiv nsz double %34, %30
  %36 = fptrunc nsz double %35 to float
  %37 = tail call nsz float @llvm.sin.f32(float %36)
  %38 = tail call nsz float @llvm.fmuladd.f32(float %37, float 5.000000e-01, float 5.000000e-01)
  %39 = fmul nsz float %38, 2.550000e+02
  %40 = tail call i64 @llvm.lrint.i64.f32(float %39)
  %41 = trunc i64 %40 to i8
  %42 = getelementptr inbounds nuw i8, ptr %24, i64 %indvars.iv54
  store i8 %41, ptr %42, align 1, !tbaa !76
  %indvars.iv.next55 = add nuw nsw i64 %indvars.iv54, 1
  %exitcond59.not = icmp eq i64 %indvars.iv.next55, %wide.trip.count58
  br i1 %exitcond59.not, label %.loopexit.thread, label %31, !llvm.loop !144

43:                                               ; preds = %.lr.ph, %43
  %indvars.iv = phi i64 [ 0, %.lr.ph ], [ %indvars.iv.next, %43 ]
  %44 = trunc nuw nsw i64 %indvars.iv to i32
  %45 = uitofp nneg i32 %44 to double
  %46 = fmul nsz double %45, 0x401921FB54442D18
  %47 = fdiv nsz double %46, %29
  %48 = fptrunc nsz double %47 to float
  %49 = tail call nsz float @llvm.sin.f32(float %48)
  %50 = tail call nsz float @llvm.fmuladd.f32(float %49, float 5.000000e-01, float 5.000000e-01)
  %51 = fmul nsz float %50, %28
  %52 = tail call i64 @llvm.lrint.i64.f32(float %51)
  %53 = trunc i64 %52 to i16
  %54 = getelementptr inbounds nuw i16, ptr %24, i64 %indvars.iv
  store i16 %53, ptr %54, align 2, !tbaa !77
  %indvars.iv.next = add nuw nsw i64 %indvars.iv, 1
  %exitcond.not = icmp eq i64 %indvars.iv.next, %wide.trip.count
  br i1 %exitcond.not, label %.loopexit, label %43, !llvm.loop !145

.loopexit.thread:                                 ; preds = %31, %.preheader
  %55 = getelementptr inbounds nuw i8, ptr %4, i64 72
  store i32 0, ptr %55, align 8, !tbaa !28
  %56 = getelementptr inbounds nuw i8, ptr %4, i64 88
  store ptr @zoneplate_fill_picture, ptr %56, align 8, !tbaa !20
  br label %.sink.split

.loopexit:                                        ; preds = %43, %.preheader45
  %57 = getelementptr inbounds nuw i8, ptr %4, i64 72
  store i32 0, ptr %57, align 8, !tbaa !28
  %58 = getelementptr inbounds nuw i8, ptr %4, i64 88
  store ptr @zoneplate_fill_picture, ptr %58, align 8, !tbaa !20
  %switch.tableidx = add i32 %12, -9
  %59 = icmp ult i32 %switch.tableidx, 8
  %switch.maskindex = trunc i32 %switch.tableidx to i8
  %switch.shifted = lshr i8 -85, %switch.maskindex
  %switch.lobit = trunc i8 %switch.shifted to i1
  %or.cond = select i1 %59, i1 %switch.lobit, i1 false
  br i1 %or.cond, label %switch.lookup, label %62

switch.lookup:                                    ; preds = %.loopexit
  %60 = zext nneg i32 %switch.tableidx to i64
  %switch.gep = getelementptr inbounds nuw [8 x ptr], ptr @switch.table.zoneplate_config_props, i64 0, i64 %60
  %switch.load = load ptr, ptr %switch.gep, align 8
  br label %.sink.split

.sink.split:                                      ; preds = %switch.lookup, %.loopexit.thread
  %zoneplate_fill_slice_16.sink = phi ptr [ @zoneplate_fill_slice_8, %.loopexit.thread ], [ %switch.load, %switch.lookup ]
  %61 = getelementptr inbounds nuw i8, ptr %4, i64 400
  store ptr %zoneplate_fill_slice_16.sink, ptr %61, align 8, !tbaa !146
  br label %62

62:                                               ; preds = %.loopexit, %.sink.split
  %63 = load ptr, ptr %0, align 8, !tbaa !38
  %64 = getelementptr inbounds nuw i8, ptr %63, i64 72
  %65 = load ptr, ptr %64, align 8, !tbaa !4
  %66 = getelementptr inbounds nuw i8, ptr %65, i64 8
  %67 = load i32, ptr %66, align 8, !tbaa !36
  %68 = getelementptr inbounds nuw i8, ptr %0, i64 40
  store i32 %67, ptr %68, align 8, !tbaa !64
  %69 = getelementptr inbounds nuw i8, ptr %65, i64 12
  %70 = load i32, ptr %69, align 4, !tbaa !37
  %71 = getelementptr inbounds nuw i8, ptr %0, i64 44
  store i32 %70, ptr %71, align 4, !tbaa !65
  %72 = getelementptr inbounds nuw i8, ptr %0, i64 48
  %73 = getelementptr inbounds nuw i8, ptr %65, i64 64
  %74 = load i64, ptr %73, align 8
  store i64 %74, ptr %72, align 8
  %75 = getelementptr inbounds nuw i8, ptr %0, i64 264
  %76 = getelementptr inbounds nuw i8, ptr %65, i64 36
  %77 = load i64, ptr %76, align 4
  store i64 %77, ptr %75, align 8
  %78 = getelementptr inbounds nuw i8, ptr %0, i64 96
  %79 = getelementptr inbounds nuw i8, ptr %65, i64 28
  %80 = load i64, ptr %79, align 4
  store i64 %80, ptr %78, align 8
  br label %81

81:                                               ; preds = %19, %1, %62
  %.041 = phi i32 [ 0, %62 ], [ -22, %1 ], [ -12, %19 ]
  ret i32 %.041
}